target datalayout = "e-m:e-p270:32:32-p271:32:32-p272:64:64-i64:64-i128:128-f80:128-n8:16:32:64-S128"
target triple = "x86_64-pc-linux-gnu"

%struct.conf_st = type { ptr }
%struct.conf_value_st = type { ptr, ptr, ptr }

@.str = private unnamed_addr constant [122 x i8] c"generated/home/dtcxzyw/WorkSpace/Projects/compilers/llvm-opt-benchmark/bench/libquic/libquic/boringssl/crypto/conf/conf.c\00", align 1

; Function Attrs: nounwind uwtable
define internal void @value_free_contents(ptr noundef %0) #0 {
  %2 = alloca ptr, align 8
  store ptr %0, ptr %2, align 8, !tbaa !15
  %3 = load ptr, ptr %2, align 8, !tbaa !15
  %4 = getelementptr inbounds nuw %struct.conf_value_st, ptr %3, i32 0, i32 0
  %5 = load ptr, ptr %4, align 8, !tbaa !17
  %6 = icmp ne ptr %5, null
  br i1 %6, label %7, label %11

7:                                                ; preds = %1
  %8 = load ptr, ptr %2, align 8, !tbaa !15
  %9 = getelementptr inbounds nuw %struct.conf_value_st, ptr %8, i32 0, i32 0
  %10 = load ptr, ptr %9, align 8, !tbaa !17
  call void @free(ptr noundef %10) #8
  br label %11

11:                                               ; preds = %7, %1
  %12 = load ptr, ptr %2, align 8, !tbaa !15
  %13 = getelementptr inbounds nuw %struct.conf_value_st, ptr %12, i32 0, i32 1
  %14 = load ptr, ptr %13, align 8, !tbaa !20
  %15 = icmp ne ptr %14, null
  br i1 %15, label %16, label %29

16:                                               ; preds = %11
  %17 = load ptr, ptr %2, align 8, !tbaa !15
  %18 = getelementptr inbounds nuw %struct.conf_value_st, ptr %17, i32 0, i32 1
  %19 = load ptr, ptr %18, align 8, !tbaa !20
  call void @free(ptr noundef %19) #8
  %20 = load ptr, ptr %2, align 8, !tbaa !15
  %21 = getelementptr inbounds nuw %struct.conf_value_st, ptr %20, i32 0, i32 2
  %22 = load ptr, ptr %21, align 8, !tbaa !24
  %23 = icmp ne ptr %22, null
  br i1 %23, label %24, label %28

24:                                               ; preds = %16
  %25 = load ptr, ptr %2, align 8, !tbaa !15
  %26 = getelementptr inbounds nuw %struct.conf_value_st, ptr %25, i32 0, i32 2
  %27 = load ptr, ptr %26, align 8, !tbaa !24
  call void @free(ptr noundef %27) #8
  br label %28

28:                                               ; preds = %24, %16
  br label %39

29:                                               ; preds = %11
  %30 = load ptr, ptr %2, align 8, !tbaa !15
  %31 = getelementptr inbounds nuw %struct.conf_value_st, ptr %30, i32 0, i32 2
  %32 = load ptr, ptr %31, align 8, !tbaa !24
  %33 = icmp ne ptr %32, null
  br i1 %33, label %34, label %38

34:                                               ; preds = %29
  %35 = load ptr, ptr %2, align 8, !tbaa !15
  %36 = getelementptr inbounds nuw %struct.conf_value_st, ptr %35, i32 0, i32 2
  %37 = load ptr, ptr %36, align 8, !tbaa !24
  call void @sk_free(ptr noundef %37)
  br label %38

38:                                               ; preds = %34, %29
  br label %39

39:                                               ; preds = %38, %28
  ret void
}

; Function Attrs: nounwind uwtable
define internal void @value_free(ptr noundef %0) #0 {
  %2 = alloca ptr, align 8
  store ptr %0, ptr %2, align 8, !tbaa !15
  %3 = load ptr, ptr %2, align 8, !tbaa !15
  call void @value_free_contents(ptr noundef %3)
  %4 = load ptr, ptr %2, align 8, !tbaa !15
  call void @free(ptr noundef %4) #8
  ret void
}

; Function Attrs: nounwind uwtable
define hidden ptr @CONF_VALUE_new() #0 {
  %1 = alloca ptr, align 8
  %2 = alloca ptr, align 8
  %3 = alloca i32, align 4
  call void @llvm.lifetime.start.p0(i64 8, ptr %2) #8
  %4 = call noalias ptr @malloc(i64 noundef 24) #9
  store ptr %4, ptr %2, align 8, !tbaa !15
  %5 = load ptr, ptr %2, align 8, !tbaa !15
  %6 = icmp ne ptr %5, null
  br i1 %6, label %8, label %7

7:                                                ; preds = %0
  call void @ERR_put_error(i32 noundef 13, i32 noundef 0, i32 noundef 65, ptr noundef @.str, i32 noundef 118)
  store ptr null, ptr %1, align 8
  store i32 1, ptr %3, align 4
  br label %11

8:                                                ; preds = %0
  %9 = load ptr, ptr %2, align 8, !tbaa !15
  call void @llvm.memset.p0.i64(ptr align 8 %9, i8 0, i64 24, i1 false)
  %10 = load ptr, ptr %2, align 8, !tbaa !15
  store ptr %10, ptr %1, align 8
  store i32 1, ptr %3, align 4
  br label %11

11:                                               ; preds = %8, %7
  call void @llvm.lifetime.end.p0(i64 8, ptr %2) #8
  %12 = load ptr, ptr %1, align 8
  ret ptr %12
}

; Function Attrs: nounwind uwtable
define internal ptr @NCONF_new_section(ptr noundef %0, ptr noundef %1) #0 {
  %3 = alloca ptr, align 8
  %4 = alloca ptr, align 8
  %5 = alloca ptr, align 8
  %6 = alloca i32, align 4
  %7 = alloca ptr, align 8
  %8 = alloca ptr, align 8
  store ptr %0, ptr %3, align 8, !tbaa !10
  store ptr %1, ptr %4, align 8, !tbaa !23
  call void @llvm.lifetime.start.p0(i64 8, ptr %5) #8
  store ptr null, ptr %5, align 8, !tbaa !48
  call void @llvm.lifetime.start.p0(i64 4, ptr %6) #8
  store i32 0, ptr %6, align 4, !tbaa !21
  call void @llvm.lifetime.start.p0(i64 8, ptr %7) #8
  store ptr null, ptr %7, align 8, !tbaa !15
  call void @llvm.lifetime.start.p0(i64 8, ptr %8) #8
  %9 = call ptr @sk_new_null()
  store ptr %9, ptr %5, align 8, !tbaa !48
  %10 = call ptr @CONF_VALUE_new()
  store ptr %10, ptr %7, align 8, !tbaa !15
  %11 = load ptr, ptr %5, align 8, !tbaa !48
  %12 = icmp eq ptr %11, null
  br i1 %12, label %16, label %13

13:                                               ; preds = %2
  %14 = load ptr, ptr %7, align 8, !tbaa !15
  %15 = icmp eq ptr %14, null
  br i1 %15, label %16, label %17

16:                                               ; preds = %13, %2
  br label %46

17:                                               ; preds = %13
  %18 = load ptr, ptr %4, align 8, !tbaa !23
  %19 = call ptr @OPENSSL_strdup(ptr noundef %18)
  %20 = load ptr, ptr %7, align 8, !tbaa !15
  %21 = getelementptr inbounds nuw %struct.conf_value_st, ptr %20, i32 0, i32 0
  store ptr %19, ptr %21, align 8, !tbaa !17
  %22 = load ptr, ptr %7, align 8, !tbaa !15
  %23 = getelementptr inbounds nuw %struct.conf_value_st, ptr %22, i32 0, i32 0
  %24 = load ptr, ptr %23, align 8, !tbaa !17
  %25 = icmp eq ptr %24, null
  br i1 %25, label %26, label %27

26:                                               ; preds = %17
  br label %46

27:                                               ; preds = %17
  %28 = load ptr, ptr %7, align 8, !tbaa !15
  %29 = getelementptr inbounds nuw %struct.conf_value_st, ptr %28, i32 0, i32 1
  store ptr null, ptr %29, align 8, !tbaa !20
  %30 = load ptr, ptr %5, align 8, !tbaa !48
  %31 = load ptr, ptr %7, align 8, !tbaa !15
  %32 = getelementptr inbounds nuw %struct.conf_value_st, ptr %31, i32 0, i32 2
  store ptr %30, ptr %32, align 8, !tbaa !24
  %33 = load ptr, ptr %3, align 8, !tbaa !10
  %34 = getelementptr inbounds nuw %struct.conf_st, ptr %33, i32 0, i32 0
  %35 = load ptr, ptr %34, align 8, !tbaa !12
  %36 = load ptr, ptr %7, align 8, !tbaa !15
  %37 = call i32 @lh_insert(ptr noundef %35, ptr noundef %8, ptr noundef %36)
  %38 = icmp ne i32 %37, 0
  br i1 %38, label %40, label %39

39:                                               ; preds = %27
  br label %46

40:                                               ; preds = %27
  %41 = load ptr, ptr %8, align 8, !tbaa !15
  %42 = icmp ne ptr %41, null
  br i1 %42, label %43, label %45

43:                                               ; preds = %40
  %44 = load ptr, ptr %8, align 8, !tbaa !15
  call void @value_free(ptr noundef %44)
  br label %45

45:                                               ; preds = %43, %40
  store i32 1, ptr %6, align 4, !tbaa !21
  br label %46

46:                                               ; preds = %45, %39, %26, %16
  %47 = load i32, ptr %6, align 4, !tbaa !21
  %48 = icmp ne i32 %47, 0
  br i1 %48, label %60, label %49

49:                                               ; preds = %46
  %50 = load ptr, ptr %5, align 8, !tbaa !48
  %51 = icmp ne ptr %50, null
  br i1 %51, label %52, label %54

52:                                               ; preds = %49
  %53 = load ptr, ptr %5, align 8, !tbaa !48
  call void @sk_free(ptr noundef %53)
  br label %54

54:                                               ; preds = %52, %49
  %55 = load ptr, ptr %7, align 8, !tbaa !15
  %56 = icmp ne ptr %55, null
  br i1 %56, label %57, label %59

57:                                               ; preds = %54
  %58 = load ptr, ptr %7, align 8, !tbaa !15
  call void @free(ptr noundef %58) #8
  br label %59

59:                                               ; preds = %57, %54
  store ptr null, ptr %7, align 8, !tbaa !15
  br label %60

60:                                               ; preds = %59, %46
  %61 = load ptr, ptr %7, align 8, !tbaa !15
  call void @llvm.lifetime.end.p0(i64 8, ptr %8) #8
  call void @llvm.lifetime.end.p0(i64 8, ptr %7) #8
  call void @llvm.lifetime.end.p0(i64 4, ptr %6) #8
  call void @llvm.lifetime.end.p0(i64 8, ptr %5) #8
  ret ptr %61
}