; Function Attrs: nounwind uwtable
define internal fastcc noundef ptr @NCONF_new_section(ptr noundef readonly captures(none) %0, ptr noundef %1) unnamed_addr #0 {
  %3 = alloca ptr, align 8
  call void @llvm.lifetime.start.p0(i64 8, ptr nonnull %3) #12
  %4 = tail call ptr @sk_new_null() #12
  %calloc.i = tail call dereferenceable_or_null(24) ptr @calloc(i64 1, i64 24)
  %.not.i = icmp eq ptr %calloc.i, null
  br i1 %.not.i, label %CONF_VALUE_new.exit.thread, label %CONF_VALUE_new.exit

CONF_VALUE_new.exit.thread:                       ; preds = %2
  tail call void @ERR_put_error(i32 noundef 13, i32 noundef 0, i32 noundef 65, ptr noundef nonnull @.str, i32 noundef 118) #12
  %5 = icmp eq ptr %4, null
  br i1 %5, label %.thread, label %.thread27

.thread27:                                        ; preds = %CONF_VALUE_new.exit.thread
  tail call void @sk_free(ptr noundef nonnull %4) #12
  br label %.thread

CONF_VALUE_new.exit:                              ; preds = %2
  %6 = icmp eq ptr %4, null
  br i1 %6, label %.thread26, label %7

7:                                                ; preds = %CONF_VALUE_new.exit
  %8 = tail call ptr @OPENSSL_strdup(ptr noundef %1) #12
  store ptr %8, ptr %calloc.i, align 8, !tbaa !12
  %9 = icmp eq ptr %8, null
  br i1 %9, label %.critedge, label %10

10:                                               ; preds = %7
  %11 = getelementptr inbounds nuw i8, ptr %calloc.i, i64 16
  store ptr %4, ptr %11, align 8, !tbaa !16
  %12 = load ptr, ptr %0, align 8, !tbaa !6
  %13 = call i32 @lh_insert(ptr noundef %12, ptr noundef nonnull %3, ptr noundef nonnull %calloc.i) #12
  %.not = icmp eq i32 %13, 0
  br i1 %.not, label %.critedge, label %14

14:                                               ; preds = %10
  %15 = load ptr, ptr %3, align 8, !tbaa !31
  %.not21 = icmp eq ptr %15, null
  br i1 %.not21, label %.thread, label %16

16:                                               ; preds = %14
  %17 = load ptr, ptr %15, align 8, !tbaa !12
  %.not.i.i = icmp eq ptr %17, null
  br i1 %.not.i.i, label %19, label %18

18:                                               ; preds = %16
  call void @free(ptr noundef nonnull %17) #12
  br label %19

19:                                               ; preds = %18, %16
  %20 = getelementptr inbounds nuw i8, ptr %15, i64 8
  %21 = load ptr, ptr %20, align 8, !tbaa !15
  %.not11.i.i = icmp eq ptr %21, null
  br i1 %.not11.i.i, label %26, label %22

22:                                               ; preds = %19
  call void @free(ptr noundef nonnull %21) #12
  %23 = getelementptr inbounds nuw i8, ptr %15, i64 16
  %24 = load ptr, ptr %23, align 8, !tbaa !16
  %.not13.i.i = icmp eq ptr %24, null
  br i1 %.not13.i.i, label %value_free.exit, label %25

25:                                               ; preds = %22
  call void @free(ptr noundef nonnull %24) #12
  br label %value_free.exit

26:                                               ; preds = %19
  %27 = getelementptr inbounds nuw i8, ptr %15, i64 16
  %28 = load ptr, ptr %27, align 8, !tbaa !16
  %.not12.i.i = icmp eq ptr %28, null
  br i1 %.not12.i.i, label %value_free.exit, label %29

29:                                               ; preds = %26
  call void @sk_free(ptr noundef nonnull %28) #12
  br label %value_free.exit

value_free.exit:                                  ; preds = %22, %25, %26, %29
  call void @free(ptr noundef nonnull %15) #12
  br label %.thread

.critedge:                                        ; preds = %7, %10
  call void @sk_free(ptr noundef nonnull %4) #12
  br label %.thread26

.thread26:                                        ; preds = %CONF_VALUE_new.exit, %.critedge
  call void @free(ptr noundef nonnull %calloc.i) #12
  br label %.thread

.thread:                                          ; preds = %CONF_VALUE_new.exit.thread, %.thread27, %.thread26, %value_free.exit, %14
  %.0 = phi ptr [ %calloc.i, %14 ], [ %calloc.i, %value_free.exit ], [ null, %.thread26 ], [ null, %.thread27 ], [ null, %CONF_VALUE_new.exit.thread ]
  call void @llvm.lifetime.end.p0(i64 8, ptr nonnull %3) #12
  ret ptr %.0
}